target datalayout = "e-m:e-p270:32:32-p271:32:32-p272:64:64-i64:64-i128:128-f80:128-n8:16:32:64-S128"
target triple = "x86_64-pc-linux-gnu"

%struct.CatalogId = type { i32, i32 }
%struct.Archive = type { ptr, ptr, i32, ptr, i32, i8, i32, i32, i32, ptr, i32, i8, ptr, ptr, i8, i32, ptr }
%struct.PQExpBufferData = type { ptr, i64, i64 }
%struct._archiveOpts = type { ptr, ptr, ptr, ptr, i8, ptr, ptr, i32, ptr, ptr, ptr, ptr, i32, ptr, ptr }

@.str.143 = private unnamed_addr constant [3 x i8] c", \00", align 1
@nilCatalogId = internal constant %struct.CatalogId zeroinitializer, align 4
@.str.738 = private unnamed_addr constant [41 x i8] c"SELECT pg_catalog.current_schemas(false)\00", align 1
@.str.739 = private unnamed_addr constant [44 x i8] c"could not parse result of current_schemas()\00", align 1
@.str.740 = private unnamed_addr constant [45 x i8] c"SELECT pg_catalog.set_config('search_path', \00", align 1
@.str.741 = private unnamed_addr constant [11 x i8] c", false);\0A\00", align 1
@.str.742 = private unnamed_addr constant [26 x i8] c"saving \22search_path = %s\22\00", align 1
@.str.743 = private unnamed_addr constant [11 x i8] c"SEARCHPATH\00", align 1

; Function Attrs: nounwind uwtable
define internal void @dumpSearchPath(ptr noundef %0) #0 {
  %2 = alloca ptr, align 8
  %3 = alloca ptr, align 8
  %4 = alloca ptr, align 8
  %5 = alloca ptr, align 8
  %6 = alloca ptr, align 8
  %7 = alloca i32, align 4
  %8 = alloca i32, align 4
  %9 = alloca %struct._archiveOpts, align 8
  store ptr %0, ptr %2, align 8
  call void @llvm.lifetime.start.p0(i64 8, ptr %3) #10
  %10 = call ptr @createPQExpBuffer()
  store ptr %10, ptr %3, align 8
  call void @llvm.lifetime.start.p0(i64 8, ptr %4) #10
  %11 = call ptr @createPQExpBuffer()
  store ptr %11, ptr %4, align 8
  call void @llvm.lifetime.start.p0(i64 8, ptr %5) #10
  call void @llvm.lifetime.start.p0(i64 8, ptr %6) #10
  store ptr null, ptr %6, align 8
  call void @llvm.lifetime.start.p0(i64 4, ptr %7) #10
  store i32 0, ptr %7, align 4
  call void @llvm.lifetime.start.p0(i64 4, ptr %8) #10
  %12 = load ptr, ptr %2, align 8
  %13 = call ptr @ExecuteSqlQueryForSingleRow(ptr noundef %12, ptr noundef @.str.738)
  store ptr %13, ptr %5, align 8
  %14 = load ptr, ptr %5, align 8
  %15 = call ptr @PQgetvalue(ptr noundef %14, i32 noundef 0, i32 noundef 0)
  %16 = call zeroext i1 @parsePGArray(ptr noundef %15, ptr noundef %6, ptr noundef %7)
  br i1 %16, label %21, label %17

17:                                               ; preds = %1
  br label %18

18:                                               ; preds = %17
  call void (i32, i32, ptr, ...) @pg_log_generic(i32 noundef 4, i32 noundef 0, ptr noundef @.str.739)
  call void @exit_nicely(i32 noundef 1) #12
  unreachable

19:                                               ; No predecessors!
  br label %20

20:                                               ; preds = %19
  br label %21

21:                                               ; preds = %20, %1
  store i32 0, ptr %8, align 4
  br label %22

22:                                               ; preds = %39, %21
  %23 = load i32, ptr %8, align 4
  %24 = load i32, ptr %7, align 4
  %25 = icmp slt i32 %23, %24
  br i1 %25, label %26, label %42

26:                                               ; preds = %22
  %27 = load i32, ptr %8, align 4
  %28 = icmp sgt i32 %27, 0
  br i1 %28, label %29, label %31

29:                                               ; preds = %26
  %30 = load ptr, ptr %4, align 8
  call void @appendPQExpBufferStr(ptr noundef %30, ptr noundef @.str.143)
  br label %31

31:                                               ; preds = %29, %26
  %32 = load ptr, ptr %4, align 8
  %33 = load ptr, ptr %6, align 8
  %34 = load i32, ptr %8, align 4
  %35 = sext i32 %34 to i64
  %36 = getelementptr inbounds ptr, ptr %33, i64 %35
  %37 = load ptr, ptr %36, align 8
  %38 = call ptr @fmtId(ptr noundef %37)
  call void @appendPQExpBufferStr(ptr noundef %32, ptr noundef %38)
  br label %39

39:                                               ; preds = %31
  %40 = load i32, ptr %8, align 4
  %41 = add i32 %40, 1
  store i32 %41, ptr %8, align 4
  br label %22, !llvm.loop !33

42:                                               ; preds = %22
  %43 = load ptr, ptr %3, align 8
  call void @appendPQExpBufferStr(ptr noundef %43, ptr noundef @.str.740)
  %44 = load ptr, ptr %3, align 8
  %45 = load ptr, ptr %4, align 8
  %46 = getelementptr inbounds nuw %struct.PQExpBufferData, ptr %45, i32 0, i32 0
  %47 = load ptr, ptr %46, align 8
  %48 = load ptr, ptr %2, align 8
  %49 = getelementptr inbounds nuw %struct.Archive, ptr %48, i32 0, i32 10
  %50 = load i32, ptr %49, align 8
  %51 = load ptr, ptr %2, align 8
  %52 = getelementptr inbounds nuw %struct.Archive, ptr %51, i32 0, i32 11
  %53 = load i8, ptr %52, align 4, !range !6, !noundef !7
  %54 = trunc i8 %53 to i1
  call void @appendStringLiteral(ptr noundef %44, ptr noundef %47, i32 noundef %50, i1 noundef zeroext %54)
  %55 = load ptr, ptr %3, align 8
  call void @appendPQExpBufferStr(ptr noundef %55, ptr noundef @.str.741)
  %56 = load ptr, ptr %4, align 8
  %57 = getelementptr inbounds nuw %struct.PQExpBufferData, ptr %56, i32 0, i32 0
  %58 = load ptr, ptr %57, align 8
  call void (i32, i32, ptr, ...) @pg_log_generic(i32 noundef 2, i32 noundef 0, ptr noundef @.str.742, ptr noundef %58)
  %59 = load ptr, ptr %2, align 8
  %60 = call i32 @createDumpId()
  call void @llvm.memset.p0.i64(ptr align 8 %9, i8 0, i64 120, i1 false)
  %61 = getelementptr inbounds nuw %struct._archiveOpts, ptr %9, i32 0, i32 0
  store ptr @.str.743, ptr %61, align 8
  %62 = getelementptr inbounds nuw %struct._archiveOpts, ptr %9, i32 0, i32 6
  store ptr @.str.743, ptr %62, align 8
  %63 = getelementptr inbounds nuw %struct._archiveOpts, ptr %9, i32 0, i32 7
  store i32 2, ptr %63, align 8
  %64 = getelementptr inbounds nuw %struct._archiveOpts, ptr %9, i32 0, i32 8
  %65 = load ptr, ptr %3, align 8
  %66 = getelementptr inbounds nuw %struct.PQExpBufferData, ptr %65, i32 0, i32 0
  %67 = load ptr, ptr %66, align 8
  store ptr %67, ptr %64, align 8
  %68 = load i64, ptr @nilCatalogId, align 4
  %69 = call ptr @ArchiveEntry(ptr noundef %59, i64 %68, i32 noundef %60, ptr noundef %9)
  %70 = load ptr, ptr %3, align 8
  %71 = getelementptr inbounds nuw %struct.PQExpBufferData, ptr %70, i32 0, i32 0
  %72 = load ptr, ptr %71, align 8
  %73 = call ptr @pg_strdup(ptr noundef %72)
  %74 = load ptr, ptr %2, align 8
  %75 = getelementptr inbounds nuw %struct.Archive, ptr %74, i32 0, i32 12
  store ptr %73, ptr %75, align 8
  %76 = load ptr, ptr %6, align 8
  call void @free(ptr noundef %76) #10
  %77 = load ptr, ptr %5, align 8
  call void @PQclear(ptr noundef %77)
  %78 = load ptr, ptr %3, align 8
  call void @destroyPQExpBuffer(ptr noundef %78)
  %79 = load ptr, ptr %4, align 8
  call void @destroyPQExpBuffer(ptr noundef %79)
  call void @llvm.lifetime.end.p0(i64 4, ptr %8) #10
  call void @llvm.lifetime.end.p0(i64 4, ptr %7) #10
  call void @llvm.lifetime.end.p0(i64 8, ptr %6) #10
  call void @llvm.lifetime.end.p0(i64 8, ptr %5) #10
  call void @llvm.lifetime.end.p0(i64 8, ptr %4) #10
  call void @llvm.lifetime.end.p0(i64 8, ptr %3) #10
  ret void
}