; Function Attrs: nounwind uwtable
define internal fastcc void @dumpSearchPath(ptr noundef %0) unnamed_addr #5 {
  %2 = alloca ptr, align 8
  %3 = alloca i32, align 4
  %4 = alloca %struct._archiveOpts, align 8
  %5 = tail call ptr @createPQExpBuffer() #14
  %6 = tail call ptr @createPQExpBuffer() #14
  call void @llvm.lifetime.start.p0(i64 8, ptr nonnull %2) #14
  store ptr null, ptr %2, align 8
  call void @llvm.lifetime.start.p0(i64 4, ptr nonnull %3) #14
  store i32 0, ptr %3, align 4
  %7 = tail call ptr @ExecuteSqlQueryForSingleRow(ptr noundef %0, ptr noundef nonnull @.str.738) #14
  %8 = tail call ptr @PQgetvalue(ptr noundef %7, i32 noundef 0, i32 noundef 0) #14
  %9 = call zeroext i1 @parsePGArray(ptr noundef %8, ptr noundef nonnull %2, ptr noundef nonnull %3) #14
  br i1 %9, label %.preheader, label %12

.preheader:                                       ; preds = %1
  %10 = load i32, ptr %3, align 4
  %11 = icmp sgt i32 %10, 0
  br i1 %11, label %.lr.ph, label %._crit_edge

12:                                               ; preds = %1
  call void (i32, i32, ptr, ...) @pg_log_generic(i32 noundef 4, i32 noundef 0, ptr noundef nonnull @.str.739) #14
  call void @exit_nicely(i32 noundef 1) #16
  unreachable

.lr.ph:                                           ; preds = %.preheader, %14
  %indvars.iv = phi i64 [ %indvars.iv.next, %14 ], [ 0, %.preheader ]
  %.not = icmp eq i64 %indvars.iv, 0
  br i1 %.not, label %14, label %13

13:                                               ; preds = %.lr.ph
  call void @appendPQExpBufferStr(ptr noundef %6, ptr noundef nonnull @.str.143) #14
  br label %14

14:                                               ; preds = %13, %.lr.ph
  %15 = load ptr, ptr %2, align 8
  %16 = getelementptr inbounds nuw ptr, ptr %15, i64 %indvars.iv
  %17 = load ptr, ptr %16, align 8
  %18 = call ptr @fmtId(ptr noundef %17) #14
  call void @appendPQExpBufferStr(ptr noundef %6, ptr noundef %18) #14
  %indvars.iv.next = add nuw nsw i64 %indvars.iv, 1
  %19 = load i32, ptr %3, align 4
  %20 = sext i32 %19 to i64
  %21 = icmp slt i64 %indvars.iv.next, %20
  br i1 %21, label %.lr.ph, label %._crit_edge, !llvm.loop !54

._crit_edge:                                      ; preds = %14, %.preheader
  call void @appendPQExpBufferStr(ptr noundef %5, ptr noundef nonnull @.str.740) #14
  %22 = load ptr, ptr %6, align 8
  %23 = getelementptr inbounds nuw i8, ptr %0, i64 64
  %24 = load i32, ptr %23, align 8
  %25 = getelementptr inbounds nuw i8, ptr %0, i64 68
  %26 = load i8, ptr %25, align 4, !range !7, !noundef !8
  %27 = trunc nuw i8 %26 to i1
  call void @appendStringLiteral(ptr noundef %5, ptr noundef %22, i32 noundef %24, i1 noundef zeroext %27) #14
  call void @appendPQExpBufferStr(ptr noundef %5, ptr noundef nonnull @.str.741) #14
  %28 = load ptr, ptr %6, align 8
  call void (i32, i32, ptr, ...) @pg_log_generic(i32 noundef 2, i32 noundef 0, ptr noundef nonnull @.str.742, ptr noundef %28) #14
  %29 = call i32 @createDumpId() #14
  %30 = getelementptr inbounds nuw i8, ptr %4, i64 8
  call void @llvm.memset.p0.i64(ptr noundef nonnull align 8 dereferenceable(120) %30, i8 0, i64 112, i1 false)
  store ptr @.str.743, ptr %4, align 8
  %31 = getelementptr inbounds nuw i8, ptr %4, i64 48
  store ptr @.str.743, ptr %31, align 8
  %32 = getelementptr inbounds nuw i8, ptr %4, i64 56
  store i32 2, ptr %32, align 8
  %33 = getelementptr inbounds nuw i8, ptr %4, i64 64
  %34 = load ptr, ptr %5, align 8
  store ptr %34, ptr %33, align 8
  %35 = call ptr @ArchiveEntry(ptr noundef %0, i64 0, i32 noundef %29, ptr noundef nonnull %4) #14
  %36 = load ptr, ptr %5, align 8
  %37 = call ptr @pg_strdup(ptr noundef %36) #14
  %38 = getelementptr inbounds nuw i8, ptr %0, i64 72
  store ptr %37, ptr %38, align 8
  %39 = load ptr, ptr %2, align 8
  call void @free(ptr noundef %39) #14
  call void @PQclear(ptr noundef %7) #14
  call void @destroyPQExpBuffer(ptr noundef nonnull %5) #14
  call void @destroyPQExpBuffer(ptr noundef nonnull %6) #14
  call void @llvm.lifetime.end.p0(i64 4, ptr nonnull %3) #14
  call void @llvm.lifetime.end.p0(i64 8, ptr nonnull %2) #14
  ret void
}